; Function Attrs: nounwind uwtable
define internal fastcc i32 @bf_pow_ui_ui(ptr noundef nonnull %0, i64 noundef %1, i64 noundef %2, i64 noundef %3, i32 noundef range(i32 0, 2017) %4) unnamed_addr #2 {
  %6 = alloca %struct.bf_t, align 8
  call void @llvm.lifetime.start.p0(i64 40, ptr nonnull %6) #21
  %7 = icmp eq i64 %1, 10
  %8 = icmp ult i64 %2, 20
  %or.cond = and i1 %7, %8
  br i1 %or.cond, label %9, label %35

9:                                                ; preds = %5
  %10 = getelementptr inbounds nuw [20 x i64], ptr @mp_pow_dec, i64 0, i64 %2
  %11 = load i64, ptr %10, align 8, !tbaa !33
  %12 = getelementptr inbounds nuw i8, ptr %0, i64 8
  store i32 0, ptr %12, align 8, !tbaa !30
  %13 = getelementptr inbounds nuw i8, ptr %0, i64 24
  %14 = load i64, ptr %13, align 8, !tbaa !32
  %.not.i15.i = icmp eq i64 %14, 1
  br i1 %.not.i15.i, label %.bf_resize.exit18.thread21_crit_edge.i, label %15

.bf_resize.exit18.thread21_crit_edge.i:           ; preds = %9
  %.phi.trans.insert.i = getelementptr inbounds nuw i8, ptr %0, i64 32
  %.pre.i = load ptr, ptr %.phi.trans.insert.i, align 8, !tbaa !29
  br label %bf_resize.exit18.thread21.i

15:                                               ; preds = %9
  %16 = load ptr, ptr %0, align 8, !tbaa !28
  %17 = getelementptr inbounds nuw i8, ptr %0, i64 32
  %18 = load ptr, ptr %17, align 8, !tbaa !29
  %.val.i16.i = load ptr, ptr %16, align 8, !tbaa !19
  %19 = getelementptr i8, ptr %16, i64 8
  %.val13.i17.i = load ptr, ptr %19, align 8, !tbaa !7
  %20 = tail call ptr %.val13.i17.i(ptr noundef %.val.i16.i, ptr noundef %18, i64 noundef 8) #21
  %21 = icmp eq ptr %20, null
  br i1 %21, label %bf_resize.exit18.i, label %22

22:                                               ; preds = %15
  store ptr %20, ptr %17, align 8, !tbaa !29
  store i64 1, ptr %13, align 8, !tbaa !32
  br label %bf_resize.exit18.thread21.i

bf_resize.exit18.thread21.i:                      ; preds = %22, %.bf_resize.exit18.thread21_crit_edge.i
  %23 = phi ptr [ %.pre.i, %.bf_resize.exit18.thread21_crit_edge.i ], [ %20, %22 ]
  %24 = tail call range(i64 0, 65) i64 @llvm.ctlz.i64(i64 range(i64 1, 0) %11, i1 true)
  %25 = shl i64 %11, %24
  store i64 %25, ptr %23, align 8, !tbaa !33
  %26 = sub nuw nsw i64 64, %24
  %27 = getelementptr inbounds nuw i8, ptr %0, i64 16
  store i64 %26, ptr %27, align 8, !tbaa !31
  br label %bf_set_ui.exit

bf_resize.exit18.i:                               ; preds = %15
  %28 = load i64, ptr %13, align 8, !tbaa !32
  %.not.i.i.i = icmp eq i64 %28, 0
  br i1 %.not.i.i.i, label %bf_set_nan.exit.i, label %29

29:                                               ; preds = %bf_resize.exit18.i
  %30 = load ptr, ptr %0, align 8, !tbaa !28
  %31 = load ptr, ptr %17, align 8, !tbaa !29
  %.val.i.i.i = load ptr, ptr %30, align 8, !tbaa !19
  %32 = getelementptr i8, ptr %30, i64 8
  %.val13.i.i.i = load ptr, ptr %32, align 8, !tbaa !7
  %33 = tail call ptr %.val13.i.i.i(ptr noundef %.val.i.i.i, ptr noundef %31, i64 noundef 0) #21
  store ptr %33, ptr %17, align 8, !tbaa !29
  store i64 0, ptr %13, align 8, !tbaa !32
  br label %bf_set_nan.exit.i

bf_set_nan.exit.i:                                ; preds = %29, %bf_resize.exit18.i
  %34 = getelementptr inbounds nuw i8, ptr %0, i64 16
  store i64 9223372036854775807, ptr %34, align 8, !tbaa !31
  store i32 0, ptr %12, align 8, !tbaa !30
  br label %bf_set_ui.exit

35:                                               ; preds = %5
  %36 = load ptr, ptr %0, align 8, !tbaa !28
  store ptr %36, ptr %6, align 8, !tbaa !28
  %37 = getelementptr inbounds nuw i8, ptr %6, i64 8
  %38 = getelementptr inbounds nuw i8, ptr %6, i64 16
  %39 = getelementptr inbounds nuw i8, ptr %6, i64 24
  call void @llvm.memset.p0.i64(ptr noundef nonnull align 8 dereferenceable(16) %39, i8 0, i64 16, i1 false)
  store i32 0, ptr %37, align 8, !tbaa !30
  %40 = icmp eq i64 %1, 0
  br i1 %40, label %41, label %42

41:                                               ; preds = %35
  store i64 -9223372036854775808, ptr %38, align 8, !tbaa !31
  br label %bf_set_ui.exit29

42:                                               ; preds = %35
  %.val.i16.i14 = load ptr, ptr %36, align 8, !tbaa !19
  %43 = getelementptr i8, ptr %36, i64 8
  %.val13.i17.i15 = load ptr, ptr %43, align 8, !tbaa !7
  %44 = tail call ptr %.val13.i17.i15(ptr noundef %.val.i16.i14, ptr noundef null, i64 noundef 8) #21
  %45 = icmp eq ptr %44, null
  br i1 %45, label %bf_set_nan.exit.i22, label %bf_resize.exit18.thread21.i16

bf_resize.exit18.thread21.i16:                    ; preds = %42
  %46 = getelementptr inbounds nuw i8, ptr %6, i64 32
  store ptr %44, ptr %46, align 8, !tbaa !29
  store i64 1, ptr %39, align 8, !tbaa !32
  %47 = tail call range(i64 0, 65) i64 @llvm.ctlz.i64(i64 range(i64 1, 0) %1, i1 true)
  %48 = shl i64 %1, %47
  store i64 %48, ptr %44, align 8, !tbaa !33
  %49 = sub nuw nsw i64 64, %47
  store i64 %49, ptr %38, align 8, !tbaa !31
  br label %bf_set_ui.exit29

bf_set_nan.exit.i22:                              ; preds = %42
  store i64 9223372036854775807, ptr %38, align 8, !tbaa !31
  store i32 0, ptr %37, align 8, !tbaa !30
  br label %bf_set_ui.exit29

bf_set_ui.exit29:                                 ; preds = %41, %bf_resize.exit18.thread21.i16, %bf_set_nan.exit.i22
  %.013.i17 = phi i32 [ 32, %bf_set_nan.exit.i22 ], [ 0, %41 ], [ 0, %bf_resize.exit18.thread21.i16 ]
  %50 = call fastcc i32 @bf_pow_ui(ptr noundef nonnull %0, ptr noundef nonnull %6, i64 noundef %2, i64 noundef %3, i32 noundef %4)
  %51 = or i32 %50, %.013.i17
  %52 = load ptr, ptr %6, align 8, !tbaa !28
  %.not.i = icmp eq ptr %52, null
  br i1 %.not.i, label %bf_set_ui.exit, label %53

53:                                               ; preds = %bf_set_ui.exit29
  %54 = getelementptr inbounds nuw i8, ptr %6, i64 32
  %55 = load ptr, ptr %54, align 8, !tbaa !29
  %.not6.i = icmp eq ptr %55, null
  br i1 %.not6.i, label %bf_set_ui.exit, label %56

56:                                               ; preds = %53
  %.val.i = load ptr, ptr %52, align 8, !tbaa !19
  %57 = getelementptr i8, ptr %52, i64 8
  %.val7.i = load ptr, ptr %57, align 8, !tbaa !7
  %58 = call ptr %.val7.i(ptr noundef %.val.i, ptr noundef nonnull %55, i64 noundef 0) #21
  br label %bf_set_ui.exit

bf_set_ui.exit:                                   ; preds = %56, %53, %bf_set_ui.exit29, %bf_set_nan.exit.i, %bf_resize.exit18.thread21.i
  %.0 = phi i32 [ 32, %bf_set_nan.exit.i ], [ 0, %bf_resize.exit18.thread21.i ], [ %51, %bf_set_ui.exit29 ], [ %51, %53 ], [ %51, %56 ]
  call void @llvm.lifetime.end.p0(i64 40, ptr nonnull %6) #21
  ret i32 %.0
}